target datalayout = "e-m:e-p270:32:32-p271:32:32-p272:64:64-i64:64-i128:128-f80:128-n8:16:32:64-S128"
target triple = "x86_64-pc-linux-gnu"

%"class.std::__cxx11::basic_string" = type { %"struct.std::__cxx11::basic_string<char>::_Alloc_hider", i64, %union.anon }
%"struct.std::__cxx11::basic_string<char>::_Alloc_hider" = type { ptr }
%union.anon = type { i64, [8 x i8] }
%"struct.faiss::RangeSearchResult" = type { ptr, i64, ptr, ptr, ptr, i64 }

@.str = private unnamed_addr constant [19 x i8] c"Error: '%s' failed\00", align 1
@.str.1 = private unnamed_addr constant [42 x i8] c"labels == nullptr && distances == nullptr\00", align 1
@__PRETTY_FUNCTION__._ZN5faiss17RangeSearchResult13do_allocationEv = private unnamed_addr constant [55 x i8] c"virtual void faiss::RangeSearchResult::do_allocation()\00", align 1
@.str.2 = private unnamed_addr constant [123 x i8] c"generated/home/dtcxzyw/WorkSpace/Projects/compilers/llvm-opt-benchmark/bench/faiss/faiss/faiss/impl/AuxIndexStructures.cpp\00", align 1
@_ZTIN5faiss14FaissExceptionE = external constant ptr

; Function Attrs: mustprogress uwtable
define void @_ZN5faiss17RangeSearchResult13do_allocationEv(ptr noundef nonnull align 8 dereferenceable(48) %0) unnamed_addr #0 align 2 personality ptr @__gxx_personality_v0 {
  %2 = alloca ptr, align 8
  %3 = alloca %"class.std::__cxx11::basic_string", align 8
  %4 = alloca i32, align 4
  %5 = alloca ptr, align 8
  %6 = alloca i32, align 4
  %7 = alloca i64, align 8
  %8 = alloca i32, align 4
  %9 = alloca i64, align 8
  store ptr %0, ptr %2, align 8
  %10 = load ptr, ptr %2, align 8
  br label %11

11:                                               ; preds = %1
  %12 = getelementptr inbounds %"struct.faiss::RangeSearchResult", ptr %10, i32 0, i32 3
  %13 = load ptr, ptr %12, align 8
  %14 = icmp eq ptr %13, null
  br i1 %14, label %15, label %19

15:                                               ; preds = %11
  %16 = getelementptr inbounds %"struct.faiss::RangeSearchResult", ptr %10, i32 0, i32 4
  %17 = load ptr, ptr %16, align 8
  %18 = icmp eq ptr %17, null
  br i1 %18, label %42, label %19

19:                                               ; preds = %15, %11
  br label %20

20:                                               ; preds = %19
  call void @_ZNSt7__cxx1112basic_stringIcSt11char_traitsIcESaIcEEC1Ev(ptr noundef nonnull align 8 dereferenceable(32) %3) #11
  %21 = call i32 (ptr, i64, ptr, ...) @snprintf(ptr noundef null, i64 noundef 0, ptr noundef @.str, ptr noundef @.str.1) #11
  store i32 %21, ptr %4, align 4
  %22 = load i32, ptr %4, align 4
  %23 = add nsw i32 %22, 1
  %24 = sext i32 %23 to i64
  invoke void @_ZNSt7__cxx1112basic_stringIcSt11char_traitsIcESaIcEE6resizeEm(ptr noundef nonnull align 8 dereferenceable(32) %3, i64 noundef %24)
          to label %25 unwind label %32

25:                                               ; preds = %20
  %26 = invoke noundef nonnull align 1 dereferenceable(1) ptr @_ZNSt7__cxx1112basic_stringIcSt11char_traitsIcESaIcEEixEm(ptr noundef nonnull align 8 dereferenceable(32) %3, i64 noundef 0)
          to label %27 unwind label %32

27:                                               ; preds = %25
  %28 = call noundef i64 @_ZNKSt7__cxx1112basic_stringIcSt11char_traitsIcESaIcEE4sizeEv(ptr noundef nonnull align 8 dereferenceable(32) %3) #11
  %29 = call i32 (ptr, i64, ptr, ...) @snprintf(ptr noundef %26, i64 noundef %28, ptr noundef @.str, ptr noundef @.str.1) #11
  %30 = call ptr @__cxa_allocate_exception(i64 40) #11
  invoke void @_ZN5faiss14FaissExceptionC1ERKNSt7__cxx1112basic_stringIcSt11char_traitsIcESaIcEEEPKcSA_i(ptr noundef nonnull align 8 dereferenceable(40) %30, ptr noundef nonnull align 8 dereferenceable(32) %3, ptr noundef @__PRETTY_FUNCTION__._ZN5faiss17RangeSearchResult13do_allocationEv, ptr noundef @.str.2, i32 noundef 40)
          to label %31 unwind label %36

31:                                               ; preds = %27
  invoke void @__cxa_throw(ptr %30, ptr @_ZTIN5faiss14FaissExceptionE, ptr @_ZN5faiss14FaissExceptionD2Ev) #14
          to label %95 unwind label %32

32:                                               ; preds = %31, %25, %20
  %33 = landingpad { ptr, i32 }
          cleanup
  %34 = extractvalue { ptr, i32 } %33, 0
  store ptr %34, ptr %5, align 8
  %35 = extractvalue { ptr, i32 } %33, 1
  store i32 %35, ptr %6, align 4
  br label %40

36:                                               ; preds = %27
  %37 = landingpad { ptr, i32 }
          cleanup
  %38 = extractvalue { ptr, i32 } %37, 0
  store ptr %38, ptr %5, align 8
  %39 = extractvalue { ptr, i32 } %37, 1
  store i32 %39, ptr %6, align 4
  call void @__cxa_free_exception(ptr %30) #11
  br label %40

40:                                               ; preds = %36, %32
  call void @_ZNSt7__cxx1112basic_stringIcSt11char_traitsIcESaIcEED1Ev(ptr noundef nonnull align 8 dereferenceable(32) %3) #11
  br label %90

41:                                               ; No predecessors!
  br label %42

42:                                               ; preds = %41, %15
  br label %43

43:                                               ; preds = %42
  store i64 0, ptr %7, align 8
  store i32 0, ptr %8, align 4
  br label %44

44:                                               ; preds = %66, %43
  %45 = load i32, ptr %8, align 4
  %46 = sext i32 %45 to i64
  %47 = getelementptr inbounds %"struct.faiss::RangeSearchResult", ptr %10, i32 0, i32 1
  %48 = load i64, ptr %47, align 8
  %49 = icmp ult i64 %46, %48
  br i1 %49, label %50, label %69

50:                                               ; preds = %44
  %51 = getelementptr inbounds %"struct.faiss::RangeSearchResult", ptr %10, i32 0, i32 2
  %52 = load ptr, ptr %51, align 8
  %53 = load i32, ptr %8, align 4
  %54 = sext i32 %53 to i64
  %55 = getelementptr inbounds i64, ptr %52, i64 %54
  %56 = load i64, ptr %55, align 8
  store i64 %56, ptr %9, align 8
  %57 = load i64, ptr %7, align 8
  %58 = getelementptr inbounds %"struct.faiss::RangeSearchResult", ptr %10, i32 0, i32 2
  %59 = load ptr, ptr %58, align 8
  %60 = load i32, ptr %8, align 4
  %61 = sext i32 %60 to i64
  %62 = getelementptr inbounds i64, ptr %59, i64 %61
  store i64 %57, ptr %62, align 8
  %63 = load i64, ptr %9, align 8
  %64 = load i64, ptr %7, align 8
  %65 = add i64 %64, %63
  store i64 %65, ptr %7, align 8
  br label %66

66:                                               ; preds = %50
  %67 = load i32, ptr %8, align 4
  %68 = add nsw i32 %67, 1
  store i32 %68, ptr %8, align 4
  br label %44, !llvm.loop !5

69:                                               ; preds = %44
  %70 = load i64, ptr %7, align 8
  %71 = getelementptr inbounds %"struct.faiss::RangeSearchResult", ptr %10, i32 0, i32 2
  %72 = load ptr, ptr %71, align 8
  %73 = getelementptr inbounds %"struct.faiss::RangeSearchResult", ptr %10, i32 0, i32 1
  %74 = load i64, ptr %73, align 8
  %75 = getelementptr inbounds i64, ptr %72, i64 %74
  store i64 %70, ptr %75, align 8
  %76 = load i64, ptr %7, align 8
  %77 = call { i64, i1 } @llvm.umul.with.overflow.i64(i64 %76, i64 8)
  %78 = extractvalue { i64, i1 } %77, 1
  %79 = extractvalue { i64, i1 } %77, 0
  %80 = select i1 %78, i64 -1, i64 %79
  %81 = call noalias noundef nonnull ptr @_Znam(i64 noundef %80) #15
  %82 = getelementptr inbounds %"struct.faiss::RangeSearchResult", ptr %10, i32 0, i32 3
  store ptr %81, ptr %82, align 8
  %83 = load i64, ptr %7, align 8
  %84 = call { i64, i1 } @llvm.umul.with.overflow.i64(i64 %83, i64 4)
  %85 = extractvalue { i64, i1 } %84, 1
  %86 = extractvalue { i64, i1 } %84, 0
  %87 = select i1 %85, i64 -1, i64 %86
  %88 = call noalias noundef nonnull ptr @_Znam(i64 noundef %87) #15
  %89 = getelementptr inbounds %"struct.faiss::RangeSearchResult", ptr %10, i32 0, i32 4
  store ptr %88, ptr %89, align 8
  ret void

90:                                               ; preds = %40
  %91 = load ptr, ptr %5, align 8
  %92 = load i32, ptr %6, align 4
  %93 = insertvalue { ptr, i32 } poison, ptr %91, 0
  %94 = insertvalue { ptr, i32 } %93, i32 %92, 1
  resume { ptr, i32 } %94

95:                                               ; preds = %31
  unreachable
}