; Function Attrs: mustprogress uwtable
define void @_ZN5faiss17RangeSearchResult13do_allocationEv(ptr nocapture noundef nonnull align 8 dereferenceable(48) %0) unnamed_addr #0 align 2 personality ptr @__gxx_personality_v0 {
  %2 = alloca %"class.std::__cxx11::basic_string", align 8
  %3 = getelementptr inbounds i8, ptr %0, i64 24
  %4 = load ptr, ptr %3, align 8
  %5 = icmp eq ptr %4, null
  br i1 %5, label %6, label %14

6:                                                ; preds = %1
  %7 = getelementptr inbounds i8, ptr %0, i64 32
  %8 = load ptr, ptr %7, align 8
  %9 = icmp eq ptr %8, null
  br i1 %9, label %.preheader, label %14

.preheader:                                       ; preds = %6
  %10 = getelementptr inbounds i8, ptr %0, i64 8
  %11 = load i64, ptr %10, align 8
  %.not = icmp eq i64 %11, 0
  %12 = getelementptr inbounds i8, ptr %0, i64 16
  br i1 %.not, label %._crit_edge.thread, label %.lr.ph

._crit_edge.thread:                               ; preds = %.preheader
  %13 = load ptr, ptr %12, align 8
  store i64 0, ptr %13, align 8
  br label %41

14:                                               ; preds = %1, %6
  call void @_ZNSt7__cxx1112basic_stringIcSt11char_traitsIcESaIcEEC1Ev(ptr noundef nonnull align 8 dereferenceable(32) %2) #14
  %15 = call i32 (ptr, i64, ptr, ...) @snprintf(ptr noundef null, i64 noundef 0, ptr noundef nonnull @.str, ptr noundef nonnull @.str.1) #14
  %16 = add nsw i32 %15, 1
  %17 = sext i32 %16 to i64
  invoke void @_ZNSt7__cxx1112basic_stringIcSt11char_traitsIcESaIcEE6resizeEm(ptr noundef nonnull align 8 dereferenceable(32) %2, i64 noundef %17)
          to label %18 unwind label %25

18:                                               ; preds = %14
  %19 = invoke noundef nonnull align 1 dereferenceable(1) ptr @_ZNSt7__cxx1112basic_stringIcSt11char_traitsIcESaIcEEixEm(ptr noundef nonnull align 8 dereferenceable(32) %2, i64 noundef 0)
          to label %20 unwind label %25

20:                                               ; preds = %18
  %21 = call noundef i64 @_ZNKSt7__cxx1112basic_stringIcSt11char_traitsIcESaIcEE4sizeEv(ptr noundef nonnull align 8 dereferenceable(32) %2) #14
  %22 = call i32 (ptr, i64, ptr, ...) @snprintf(ptr noundef nonnull %19, i64 noundef %21, ptr noundef nonnull @.str, ptr noundef nonnull @.str.1) #14
  %23 = call ptr @__cxa_allocate_exception(i64 40) #14
  invoke void @_ZN5faiss14FaissExceptionC1ERKNSt7__cxx1112basic_stringIcSt11char_traitsIcESaIcEEEPKcSA_i(ptr noundef nonnull align 8 dereferenceable(40) %23, ptr noundef nonnull align 8 dereferenceable(32) %2, ptr noundef nonnull @__PRETTY_FUNCTION__._ZN5faiss17RangeSearchResult13do_allocationEv, ptr noundef nonnull @.str.2, i32 noundef 40)
          to label %24 unwind label %27

24:                                               ; preds = %20
  invoke void @__cxa_throw(ptr nonnull %23, ptr nonnull @_ZTIN5faiss14FaissExceptionE, ptr nonnull @_ZN5faiss14FaissExceptionD2Ev) #21
          to label %47 unwind label %25

25:                                               ; preds = %24, %18, %14
  %26 = landingpad { ptr, i32 }
          cleanup
  br label %29

27:                                               ; preds = %20
  %28 = landingpad { ptr, i32 }
          cleanup
  call void @__cxa_free_exception(ptr %23) #14
  br label %29

29:                                               ; preds = %27, %25
  %.pn = phi { ptr, i32 } [ %26, %25 ], [ %28, %27 ]
  call void @_ZNSt7__cxx1112basic_stringIcSt11char_traitsIcESaIcEED1Ev(ptr noundef nonnull align 8 dereferenceable(32) %2) #14
  resume { ptr, i32 } %.pn

.lr.ph:                                           ; preds = %.preheader, %.lr.ph
  %indvars.iv = phi i64 [ %indvars.iv.next, %.lr.ph ], [ 0, %.preheader ]
  %.01419 = phi i64 [ %33, %.lr.ph ], [ 0, %.preheader ]
  %30 = load ptr, ptr %12, align 8
  %31 = getelementptr inbounds i64, ptr %30, i64 %indvars.iv
  %32 = load i64, ptr %31, align 8
  store i64 %.01419, ptr %31, align 8
  %.fr32 = freeze i64 %32
  %33 = add i64 %.fr32, %.01419
  %indvars.iv.next = add nuw nsw i64 %indvars.iv, 1
  %34 = load i64, ptr %10, align 8
  %35 = icmp ugt i64 %34, %indvars.iv.next
  br i1 %35, label %.lr.ph, label %._crit_edge, !llvm.loop !5

._crit_edge:                                      ; preds = %.lr.ph
  %36 = getelementptr inbounds i8, ptr %0, i64 16
  %37 = load ptr, ptr %36, align 8
  %38 = getelementptr inbounds i64, ptr %37, i64 %34
  store i64 %33, ptr %38, align 8
  %39 = icmp ugt i64 %33, 2305843009213693951
  %40 = shl i64 %33, 3
  %spec.select = select i1 %39, i64 -1, i64 %40
  br label %41

41:                                               ; preds = %._crit_edge, %._crit_edge.thread
  %.014.lcssa28 = phi i64 [ 0, %._crit_edge.thread ], [ %33, %._crit_edge ]
  %42 = phi i64 [ 0, %._crit_edge.thread ], [ %spec.select, %._crit_edge ]
  %43 = tail call noalias noundef nonnull ptr @_Znam(i64 noundef %42) #22
  store ptr %43, ptr %3, align 8
  %44 = icmp ugt i64 %.014.lcssa28, 4611686018427387903
  %45 = shl i64 %.014.lcssa28, 2
  %spec.select31 = select i1 %44, i64 -1, i64 %45
  %46 = tail call noalias noundef nonnull ptr @_Znam(i64 noundef %spec.select31) #22
  store ptr %46, ptr %7, align 8
  ret void

47:                                               ; preds = %24
  unreachable
}